; Function Attrs: mustprogress nofree norecurse nosync nounwind willreturn memory(read, argmem: write, inaccessiblemem: none) uwtable
define dso_local void @_ZN4Luau16CstExprIndexExprC2ENS_8PositionES1_(ptr noundef nonnull writeonly align 4 captures(none) dereferenceable(20) initializes((0, 20)) %0, i64 %1, i64 %2) unnamed_addr #4 align 2 {
  %4 = load i32, ptr @_ZN4Luau7CstRttiINS_16CstExprIndexExprEE5valueE, align 4, !tbaa !4
  store i32 %4, ptr %0, align 4, !tbaa !8
  %5 = getelementptr inbounds nuw i8, ptr %0, i64 4
  store i64 %1, ptr %5, align 4
  %6 = getelementptr inbounds nuw i8, ptr %0, i64 12
  store i64 %2, ptr %6, align 4
  ret void
}